; Function Attrs: nounwind uwtable
define internal void @dataDeviceHandleEnter(ptr readnone captures(none) %0, ptr readnone captures(none) %1, i32 noundef %2, ptr noundef %3, i32 %4, i32 %5, ptr noundef %6) #0 {
  %8 = load ptr, ptr getelementptr inbounds nuw (i8, ptr @_glfw, i64 134064), align 8, !tbaa !177
  %.not = icmp eq ptr %8, null
  br i1 %.not, label %14, label %9

9:                                                ; preds = %7
  %10 = load ptr, ptr getelementptr inbounds nuw (i8, ptr @_glfw, i64 137528), align 8, !tbaa !136
  %11 = load ptr, ptr getelementptr inbounds nuw (i8, ptr @_glfw, i64 137520), align 8, !tbaa !93
  %12 = tail call i32 %11(ptr noundef nonnull %8) #20
  %13 = tail call ptr (ptr, i32, ptr, i32, i32, ...) %10(ptr noundef nonnull %8, i32 noundef 2, ptr noundef null, i32 noundef %12, i32 noundef 1) #20
  tail call void @llvm.memset.p0.i64(ptr noundef nonnull align 8 dereferenceable(16) getelementptr inbounds nuw (i8, ptr @_glfw, i64 134064), i8 0, i64 16, i1 false)
  br label %14

14:                                               ; preds = %9, %7
  %15 = load i32, ptr getelementptr inbounds nuw (i8, ptr @_glfw, i64 134040), align 8, !tbaa !174
  %.not28 = icmp eq i32 %15, 0
  br i1 %.not28, label %.loopexit, label %.lr.ph

.lr.ph:                                           ; preds = %14
  %16 = load ptr, ptr getelementptr inbounds nuw (i8, ptr @_glfw, i64 134032), align 8, !tbaa !173
  %wide.trip.count = zext i32 %15 to i64
  br label %18

17:                                               ; preds = %18
  %indvars.iv.next = add nuw nsw i64 %indvars.iv, 1
  %exitcond.not = icmp eq i64 %indvars.iv.next, %wide.trip.count
  br i1 %exitcond.not, label %.loopexit, label %18

18:                                               ; preds = %.lr.ph, %17
  %indvars.iv = phi i64 [ 0, %.lr.ph ], [ %indvars.iv.next, %17 ]
  %19 = getelementptr inbounds nuw %struct._GLFWofferWayland, ptr %16, i64 %indvars.iv
  %20 = load ptr, ptr %19, align 8, !tbaa !178
  %21 = icmp eq ptr %20, %6
  br i1 %21, label %22, label %17

22:                                               ; preds = %18
  %.not23 = icmp ne ptr %3, null
  tail call void @llvm.assume(i1 %.not23)
  %23 = load ptr, ptr getelementptr inbounds nuw (i8, ptr @_glfw, i64 137504), align 8, !tbaa !180
  %24 = tail call ptr %23(ptr noundef nonnull %3) #20
  %25 = icmp eq ptr %24, getelementptr inbounds nuw (i8, ptr @_glfw, i64 134088)
  tail call void @llvm.assume(i1 %25)
  %26 = load ptr, ptr getelementptr inbounds nuw (i8, ptr @_glfw, i64 137488), align 8, !tbaa !181
  %27 = tail call ptr %26(ptr noundef nonnull %3) #20
  %28 = getelementptr inbounds nuw i8, ptr %27, i64 904
  %29 = load ptr, ptr %28, align 8, !tbaa !135
  %30 = icmp eq ptr %3, %29
  %.pre = load ptr, ptr getelementptr inbounds nuw (i8, ptr @_glfw, i64 134032), align 8, !tbaa !173
  br i1 %30, label %31, label %35

31:                                               ; preds = %22
  %32 = getelementptr inbounds nuw %struct._GLFWofferWayland, ptr %.pre, i64 %indvars.iv, i32 2
  %33 = load i32, ptr %32, align 4, !tbaa !182
  %.not24 = icmp eq i32 %33, 0
  br i1 %.not24, label %35, label %34

34:                                               ; preds = %31
  store ptr %6, ptr getelementptr inbounds nuw (i8, ptr @_glfw, i64 134064), align 8, !tbaa !177
  store ptr %27, ptr getelementptr inbounds nuw (i8, ptr @_glfw, i64 134072), align 8, !tbaa !183
  store i32 %2, ptr getelementptr inbounds nuw (i8, ptr @_glfw, i64 134080), align 8, !tbaa !184
  br label %35

35:                                               ; preds = %34, %31, %22
  %36 = getelementptr inbounds nuw %struct._GLFWofferWayland, ptr %.pre, i64 %indvars.iv
  %37 = load i32, ptr getelementptr inbounds nuw (i8, ptr @_glfw, i64 134040), align 8, !tbaa !174
  %38 = add i32 %37, -1
  %39 = zext i32 %38 to i64
  %40 = getelementptr inbounds nuw %struct._GLFWofferWayland, ptr %.pre, i64 %39
  tail call void @llvm.memcpy.p0.p0.i64(ptr noundef nonnull align 8 dereferenceable(16) %36, ptr noundef nonnull align 8 dereferenceable(16) %40, i64 16, i1 false), !tbaa.struct !185
  %41 = load i32, ptr getelementptr inbounds nuw (i8, ptr @_glfw, i64 134040), align 8, !tbaa !174
  %42 = add i32 %41, -1
  store i32 %42, ptr getelementptr inbounds nuw (i8, ptr @_glfw, i64 134040), align 8, !tbaa !174
  br label %.loopexit

.loopexit:                                        ; preds = %17, %14, %35
  %43 = load ptr, ptr getelementptr inbounds nuw (i8, ptr @_glfw, i64 137504), align 8, !tbaa !180
  %44 = tail call ptr %43(ptr noundef %3) #20
  %.not25 = icmp eq ptr %44, getelementptr inbounds nuw (i8, ptr @_glfw, i64 134088)
  br i1 %.not25, label %45, label %58

45:                                               ; preds = %.loopexit
  %46 = load ptr, ptr getelementptr inbounds nuw (i8, ptr @_glfw, i64 134064), align 8, !tbaa !177
  %.not26 = icmp eq ptr %46, null
  %47 = load ptr, ptr getelementptr inbounds nuw (i8, ptr @_glfw, i64 137528), align 8, !tbaa !136
  %48 = load ptr, ptr getelementptr inbounds nuw (i8, ptr @_glfw, i64 137520), align 8, !tbaa !93
  %49 = tail call i32 %48(ptr noundef %6) #20
  br i1 %.not26, label %52, label %50

50:                                               ; preds = %45
  %51 = tail call ptr (ptr, i32, ptr, i32, i32, ...) %47(ptr noundef %6, i32 noundef 0, ptr noundef null, i32 noundef %49, i32 noundef 0, i32 noundef %2, ptr noundef nonnull @.str.41) #20
  br label %58

52:                                               ; preds = %45
  %53 = tail call ptr (ptr, i32, ptr, i32, i32, ...) %47(ptr noundef %6, i32 noundef 0, ptr noundef null, i32 noundef %49, i32 noundef 0, i32 noundef %2, ptr noundef null) #20
  %54 = load ptr, ptr getelementptr inbounds nuw (i8, ptr @_glfw, i64 137528), align 8, !tbaa !136
  %55 = load ptr, ptr getelementptr inbounds nuw (i8, ptr @_glfw, i64 137520), align 8, !tbaa !93
  %56 = tail call i32 %55(ptr noundef %6) #20
  %57 = tail call ptr (ptr, i32, ptr, i32, i32, ...) %54(ptr noundef %6, i32 noundef 2, ptr noundef null, i32 noundef %56, i32 noundef 1) #20
  br label %58

58:                                               ; preds = %.loopexit, %52, %50
  ret void
}